; ModuleID = '20/195.c'
source_filename = "20/195.c"
target datalayout = "e-m:e-p270:32:32-p271:32:32-p272:64:64-i64:64-f80:128-n8:16:32:64-S128"
target triple = "x86_64-pc-linux-gnu"

@.str = private unnamed_addr constant [6 x i8] c"%s %s\00", align 1
@.str.1 = private unnamed_addr constant [4 x i8] c"%s\0A\00", align 1

; Function Attrs: noinline nounwind uwtable
define dso_local void @main() #0 {
  %1 = alloca i32, align 4
  %2 = alloca [100 x i8], align 16
  %3 = alloca [5 x i8], align 1
  %4 = alloca [100 x i8], align 16
  %5 = alloca i8, align 1
  %6 = alloca i32, align 4
  %7 = alloca i32, align 4
  %8 = alloca i32, align 4
  br label %9

9:                                                ; preds = %129, %0
  %10 = bitcast [100 x i8]* %4 to i8*
  call void @llvm.memset.p0i8.i64(i8* align 16 %10, i8 0, i64 100, i1 false)
  %11 = call i32 (i8*, ...) @__isoc99_scanf(i8* getelementptr inbounds ([6 x i8], [6 x i8]* @.str, i64 0, i64 0), [100 x i8]* %2, [5 x i8]* %3)
  store i32 %11, i32* %1, align 4
  %12 = load i32, i32* %1, align 4
  %13 = icmp ne i32 %12, 2
  br i1 %13, label %14, label %15

14:                                               ; preds = %9
  br label %130

15:                                               ; preds = %9
  store i32 0, i32* %6, align 4
  %16 = getelementptr inbounds [100 x i8], [100 x i8]* %2, i64 0, i64 0
  %17 = load i8, i8* %16, align 16
  store i8 %17, i8* %5, align 1
  br label %18

18:                                               ; preds = %39, %15
  %19 = load i32, i32* %6, align 4
  %20 = sext i32 %19 to i64
  %21 = getelementptr inbounds [100 x i8], [100 x i8]* %2, i64 0, i64 0
  %22 = call i64 @strlen(i8* %21) #4
  %23 = icmp ult i64 %20, %22
  br i1 %23, label %24, label %42

24:                                               ; preds = %18
  %25 = load i8, i8* %5, align 1
  %26 = sext i8 %25 to i32
  %27 = load i32, i32* %6, align 4
  %28 = sext i32 %27 to i64
  %29 = getelementptr inbounds [100 x i8], [100 x i8]* %2, i64 0, i64 %28
  %30 = load i8, i8* %29, align 1
  %31 = sext i8 %30 to i32
  %32 = icmp slt i32 %26, %31
  br i1 %32, label %33, label %38

33:                                               ; preds = %24
  %34 = load i32, i32* %6, align 4
  %35 = sext i32 %34 to i64
  %36 = getelementptr inbounds [100 x i8], [100 x i8]* %2, i64 0, i64 %35
  %37 = load i8, i8* %36, align 1
  store i8 %37, i8* %5, align 1
  br label %38

38:                                               ; preds = %33, %24
  br label %39

39:                                               ; preds = %38
  %40 = load i32, i32* %6, align 4
  %41 = add nsw i32 %40, 1
  store i32 %41, i32* %6, align 4
  br label %18

42:                                               ; preds = %18
  store i32 0, i32* %6, align 4
  br label %43

43:                                               ; preds = %61, %42
  %44 = load i32, i32* %6, align 4
  %45 = sext i32 %44 to i64
  %46 = getelementptr inbounds [100 x i8], [100 x i8]* %2, i64 0, i64 0
  %47 = call i64 @strlen(i8* %46) #4
  %48 = icmp ult i64 %45, %47
  br i1 %48, label %49, label %64

49:                                               ; preds = %43
  %50 = load i32, i32* %6, align 4
  %51 = sext i32 %50 to i64
  %52 = getelementptr inbounds [100 x i8], [100 x i8]* %2, i64 0, i64 %51
  %53 = load i8, i8* %52, align 1
  %54 = sext i8 %53 to i32
  %55 = load i8, i8* %5, align 1
  %56 = sext i8 %55 to i32
  %57 = icmp eq i32 %54, %56
  br i1 %57, label %58, label %60

58:                                               ; preds = %49
  %59 = load i32, i32* %6, align 4
  store i32 %59, i32* %8, align 4
  br label %64

60:                                               ; preds = %49
  br label %61

61:                                               ; preds = %60
  %62 = load i32, i32* %6, align 4
  %63 = add nsw i32 %62, 1
  store i32 %63, i32* %6, align 4
  br label %43

64:                                               ; preds = %58, %43
  store i32 0, i32* %6, align 4
  br label %65

65:                                               ; preds = %77, %64
  %66 = load i32, i32* %6, align 4
  %67 = load i32, i32* %8, align 4
  %68 = icmp sle i32 %66, %67
  br i1 %68, label %69, label %80

69:                                               ; preds = %65
  %70 = load i32, i32* %6, align 4
  %71 = sext i32 %70 to i64
  %72 = getelementptr inbounds [100 x i8], [100 x i8]* %2, i64 0, i64 %71
  %73 = load i8, i8* %72, align 1
  %74 = load i32, i32* %6, align 4
  %75 = sext i32 %74 to i64
  %76 = getelementptr inbounds [100 x i8], [100 x i8]* %4, i64 0, i64 %75
  store i8 %73, i8* %76, align 1
  br label %77

77:                                               ; preds = %69
  %78 = load i32, i32* %6, align 4
  %79 = add nsw i32 %78, 1
  store i32 %79, i32* %6, align 4
  br label %65

80:                                               ; preds = %65
  store i32 0, i32* %6, align 4
  br label %81

81:                                               ; preds = %95, %80
  %82 = load i32, i32* %6, align 4
  %83 = icmp slt i32 %82, 3
  br i1 %83, label %84, label %98

84:                                               ; preds = %81
  %85 = load i32, i32* %6, align 4
  %86 = sext i32 %85 to i64
  %87 = getelementptr inbounds [5 x i8], [5 x i8]* %3, i64 0, i64 %86
  %88 = load i8, i8* %87, align 1
  %89 = load i32, i32* %8, align 4
  %90 = add nsw i32 %89, 1
  %91 = load i32, i32* %6, align 4
  %92 = add nsw i32 %90, %91
  %93 = sext i32 %92 to i64
  %94 = getelementptr inbounds [100 x i8], [100 x i8]* %4, i64 0, i64 %93
  store i8 %88, i8* %94, align 1
  br label %95

95:                                               ; preds = %84
  %96 = load i32, i32* %6, align 4
  %97 = add nsw i32 %96, 1
  store i32 %97, i32* %6, align 4
  br label %81

98:                                               ; preds = %81
  store i32 0, i32* %6, align 4
  br label %99

99:                                               ; preds = %123, %98
  %100 = load i32, i32* %6, align 4
  %101 = sext i32 %100 to i64
  %102 = getelementptr inbounds [100 x i8], [100 x i8]* %2, i64 0, i64 0
  %103 = call i64 @strlen(i8* %102) #4
  %104 = load i32, i32* %8, align 4
  %105 = sext i32 %104 to i64
  %106 = sub i64 %103, %105
  %107 = sub i64 %106, 1
  %108 = icmp ult i64 %101, %107
  br i1 %108, label %109, label %126

109:                                              ; preds = %99
  %110 = load i32, i32* %8, align 4
  %111 = load i32, i32* %6, align 4
  %112 = add nsw i32 %110, %111
  %113 = add nsw i32 %112, 1
  %114 = sext i32 %113 to i64
  %115 = getelementptr inbounds [100 x i8], [100 x i8]* %2, i64 0, i64 %114
  %116 = load i8, i8* %115, align 1
  %117 = load i32, i32* %8, align 4
  %118 = add nsw i32 %117, 4
  %119 = load i32, i32* %6, align 4
  %120 = add nsw i32 %118, %119
  %121 = sext i32 %120 to i64
  %122 = getelementptr inbounds [100 x i8], [100 x i8]* %4, i64 0, i64 %121
  store i8 %116, i8* %122, align 1
  br label %123

123:                                              ; preds = %109
  %124 = load i32, i32* %6, align 4
  %125 = add nsw i32 %124, 1
  store i32 %125, i32* %6, align 4
  br label %99

126:                                              ; preds = %99
  %127 = getelementptr inbounds [100 x i8], [100 x i8]* %4, i64 0, i64 0
  %128 = call i32 (i8*, ...) @printf(i8* getelementptr inbounds ([4 x i8], [4 x i8]* @.str.1, i64 0, i64 0), i8* %127)
  br label %129

129:                                              ; preds = %126
  br label %9

130:                                              ; preds = %14
  ret void
}

; Function Attrs: argmemonly nounwind willreturn
declare void @llvm.memset.p0i8.i64(i8* nocapture writeonly, i8, i64, i1 immarg) #1

declare dso_local i32 @__isoc99_scanf(i8*, ...) #2

; Function Attrs: nounwind readonly
declare dso_local i64 @strlen(i8*) #3

declare dso_local i32 @printf(i8*, ...) #2


!llvm.module.flags = !{!0}
!llvm.ident = !{!1}

!0 = !{i32 1, !"wchar_size", i32 4}
!1 = !{!"clang version 10.0.0-4ubuntu1 "}
